target datalayout = "e-m:e-p270:32:32-p271:32:32-p272:64:64-i64:64-i128:128-f80:128-n8:16:32:64-S128"
target triple = "x86_64-pc-linux-gnu"

%struct.slurm_conf_t = type { i64, ptr, i16, ptr, ptr, ptr, ptr, ptr, i16, ptr, ptr, ptr, ptr, ptr, ptr, ptr, i16, ptr, ptr, ptr, ptr, i16, ptr, ptr, ptr, i64, ptr, ptr, ptr, ptr, i16, ptr, ptr, i16, i32, ptr, i32, ptr, i32, i32, ptr, ptr, i64, i64, ptr, i16, i16, ptr, i32, i32, ptr, i32, ptr, i32, i16, i16, i16, ptr, i16, i16, ptr, ptr, i32, i16, i16, ptr, i32, i16, ptr, ptr, ptr, ptr, i16, ptr, ptr, ptr, ptr, i32, ptr, ptr, ptr, ptr, i16, i16, ptr, i32, i32, i32, i16, i16, ptr, ptr, i16, ptr, ptr, i32, i32, i32, i32, i32, i64, i32, i32, i16, ptr, ptr, i32, ptr, ptr, ptr, i16, i32, ptr, ptr, i16, ptr, ptr, i32, i16, ptr, ptr, ptr, ptr, i32, i32, i16, i16, i32, ptr, i16, ptr, i32, i32, i32, i32, i32, i32, ptr, i16, ptr, ptr, i32, i16, ptr, i32, i16, i16, ptr, ptr, ptr, i16, ptr, ptr, ptr, ptr, i16, i16, ptr, i16, ptr, i16, ptr, i16, ptr, i16, ptr, ptr, ptr, ptr, i16, ptr, ptr, ptr, i32, ptr, i32, ptr, ptr, i16, ptr, ptr, i32, i16, ptr, ptr, i16, i16, ptr, i16, ptr, ptr, ptr, i32, ptr, i16, i16, ptr, ptr, ptr, ptr, ptr, ptr, ptr, ptr, i16, i32, i16, ptr, ptr, ptr, ptr, i32, ptr, ptr, ptr, i16, ptr, ptr, ptr, i16, ptr, i16, ptr, i16, i16, ptr }
%struct.valid_feature_args_t = type { ptr, ptr }
%struct.build_valid_feature_set_args_t = type { ptr, ptr }

@plugin_type = dso_local constant [22 x i8] c"node_features/helpers\00", align 16
@slurm_conf = external global %struct.slurm_conf_t, align 8
@.str.50 = private unnamed_addr constant [70 x i8] c"%s: %s: NODE_FEATURES: Check if the features %s are valid on nodes %s\00", align 1
@__func__._reconcile_job_features = private unnamed_addr constant [24 x i8] c"_reconcile_job_features\00", align 1

; Function Attrs: nounwind uwtable
define internal i32 @_reconcile_job_features(ptr noundef %0, ptr noundef %1) #0 {
  %3 = alloca ptr, align 8
  %4 = alloca ptr, align 8
  %5 = alloca i32, align 4
  %6 = alloca ptr, align 8
  %7 = alloca ptr, align 8
  %8 = alloca ptr, align 8
  %9 = alloca %struct.build_valid_feature_set_args_t, align 8
  %10 = alloca ptr, align 8
  %11 = alloca ptr, align 8
  store ptr %0, ptr %3, align 8
  store ptr %1, ptr %4, align 8
  call void @llvm.lifetime.start.p0(i64 4, ptr %5) #8
  store i32 0, ptr %5, align 4
  call void @llvm.lifetime.start.p0(i64 8, ptr %6) #8
  store ptr null, ptr %6, align 8
  call void @llvm.lifetime.start.p0(i64 8, ptr %7) #8
  %12 = load ptr, ptr %3, align 8
  store ptr %12, ptr %7, align 8
  call void @llvm.lifetime.start.p0(i64 8, ptr %8) #8
  %13 = load ptr, ptr %4, align 8
  store ptr %13, ptr %8, align 8
  call void @llvm.lifetime.start.p0(i64 16, ptr %9) #8
  %14 = getelementptr inbounds nuw %struct.build_valid_feature_set_args_t, ptr %9, i32 0, i32 0
  store ptr null, ptr %14, align 8
  %15 = getelementptr inbounds nuw %struct.build_valid_feature_set_args_t, ptr %9, i32 0, i32 1
  %16 = load ptr, ptr %8, align 8
  %17 = getelementptr inbounds nuw %struct.valid_feature_args_t, ptr %16, i32 0, i32 1
  %18 = load ptr, ptr %17, align 8
  store ptr %18, ptr %15, align 8
  %19 = call ptr @list_create(ptr noundef @xfree_ptr)
  store ptr %19, ptr %6, align 8
  %20 = load ptr, ptr %6, align 8
  %21 = getelementptr inbounds nuw %struct.build_valid_feature_set_args_t, ptr %9, i32 0, i32 0
  store ptr %20, ptr %21, align 8
  %22 = load i64, ptr getelementptr inbounds nuw (%struct.slurm_conf_t, ptr @slurm_conf, i32 0, i32 42), align 8
  %23 = and i64 %22, 140737488355328
  %24 = icmp ne i64 %23, 0
  br i1 %24, label %25, label %49

25:                                               ; preds = %2
  call void @llvm.lifetime.start.p0(i64 8, ptr %10) #8
  store ptr null, ptr %10, align 8
  call void @llvm.lifetime.start.p0(i64 8, ptr %11) #8
  %26 = load ptr, ptr %8, align 8
  %27 = getelementptr inbounds nuw %struct.valid_feature_args_t, ptr %26, i32 0, i32 1
  %28 = load ptr, ptr %27, align 8
  %29 = call ptr @bitmap2node_name(ptr noundef %28)
  store ptr %29, ptr %11, align 8
  %30 = load ptr, ptr %7, align 8
  %31 = call i32 @job_features_set2str(ptr noundef %30, ptr noundef %10)
  br label %32

32:                                               ; preds = %25
  %33 = load i64, ptr getelementptr inbounds nuw (%struct.slurm_conf_t, ptr @slurm_conf, i32 0, i32 42), align 8
  %34 = and i64 %33, 140737488355328
  %35 = icmp ne i64 %34, 0
  br i1 %35, label %36, label %46

36:                                               ; preds = %32
  br label %37

37:                                               ; preds = %36
  %38 = call i32 @get_log_level()
  %39 = icmp sge i32 %38, 4
  br i1 %39, label %40, label %43

40:                                               ; preds = %37
  %41 = load ptr, ptr %10, align 8
  %42 = load ptr, ptr %11, align 8
  call void (i32, ptr, ...) @log_var(i32 noundef 4, ptr noundef @.str.50, ptr noundef @plugin_type, ptr noundef @__func__._reconcile_job_features, ptr noundef %41, ptr noundef %42)
  br label %43

43:                                               ; preds = %40, %37
  br label %44

44:                                               ; preds = %43
  br label %45

45:                                               ; preds = %44
  br label %46

46:                                               ; preds = %45, %32
  br label %47

47:                                               ; preds = %46
  br label %48

48:                                               ; preds = %47
  call void @slurm_xfree(ptr noundef %10)
  call void @slurm_xfree(ptr noundef %11)
  call void @llvm.lifetime.end.p0(i64 8, ptr %11) #8
  call void @llvm.lifetime.end.p0(i64 8, ptr %10) #8
  br label %49

49:                                               ; preds = %48, %2
  %50 = load ptr, ptr %7, align 8
  %51 = call i32 @list_for_each(ptr noundef %50, ptr noundef @_build_valid_feature_set, ptr noundef %9)
  %52 = icmp slt i32 %51, 0
  br i1 %52, label %53, label %54

53:                                               ; preds = %49
  store i32 0, ptr %5, align 4
  br label %59

54:                                               ; preds = %49
  %55 = load ptr, ptr %6, align 8
  %56 = load ptr, ptr %8, align 8
  %57 = getelementptr inbounds nuw %struct.valid_feature_args_t, ptr %56, i32 0, i32 0
  %58 = call i32 @list_for_each(ptr noundef %55, ptr noundef @_list_make_str, ptr noundef %57)
  store i32 -1, ptr %5, align 4
  br label %59

59:                                               ; preds = %54, %53
  br label %60

60:                                               ; preds = %59
  %61 = load ptr, ptr %6, align 8
  %62 = icmp ne ptr %61, null
  br i1 %62, label %63, label %65

63:                                               ; preds = %60
  %64 = load ptr, ptr %6, align 8
  call void @list_destroy(ptr noundef %64)
  br label %65

65:                                               ; preds = %63, %60
  store ptr null, ptr %6, align 8
  br label %66

66:                                               ; preds = %65
  br label %67

67:                                               ; preds = %66
  %68 = load i32, ptr %5, align 4
  call void @llvm.lifetime.end.p0(i64 16, ptr %9) #8
  call void @llvm.lifetime.end.p0(i64 8, ptr %8) #8
  call void @llvm.lifetime.end.p0(i64 8, ptr %7) #8
  call void @llvm.lifetime.end.p0(i64 8, ptr %6) #8
  call void @llvm.lifetime.end.p0(i64 4, ptr %5) #8
  ret i32 %68
}