; Function Attrs: nounwind uwtable
define internal range(i32 -1, 1) i32 @_reconcile_job_features(ptr noundef %0, ptr noundef %1) #0 {
  %3 = alloca %struct.build_valid_feature_set_args_t, align 8
  %4 = alloca ptr, align 8
  %5 = alloca ptr, align 8
  call void @llvm.lifetime.start.p0(i64 16, ptr nonnull %3) #10
  %6 = getelementptr inbounds nuw i8, ptr %3, i64 8
  %7 = getelementptr inbounds nuw i8, ptr %1, i64 8
  %8 = load ptr, ptr %7, align 8
  store ptr %8, ptr %6, align 8
  %9 = tail call ptr @list_create(ptr noundef nonnull @xfree_ptr) #10
  store ptr %9, ptr %3, align 8
  %10 = load i64, ptr getelementptr inbounds nuw (i8, ptr @slurm_conf, i64 320), align 8
  %11 = and i64 %10, 140737488355328
  %.not = icmp eq i64 %11, 0
  br i1 %.not, label %24, label %12

12:                                               ; preds = %2
  call void @llvm.lifetime.start.p0(i64 8, ptr nonnull %4) #10
  store ptr null, ptr %4, align 8
  call void @llvm.lifetime.start.p0(i64 8, ptr nonnull %5) #10
  %13 = load ptr, ptr %7, align 8
  %14 = tail call ptr @bitmap2node_name(ptr noundef %13) #10
  store ptr %14, ptr %5, align 8
  %15 = call i32 @job_features_set2str(ptr noundef %0, ptr noundef nonnull %4) #10
  %16 = load i64, ptr getelementptr inbounds nuw (i8, ptr @slurm_conf, i64 320), align 8
  %17 = and i64 %16, 140737488355328
  %.not12 = icmp eq i64 %17, 0
  br i1 %.not12, label %23, label %18

18:                                               ; preds = %12
  %19 = call i32 @get_log_level() #10
  %20 = icmp sgt i32 %19, 3
  br i1 %20, label %21, label %23

21:                                               ; preds = %18
  %22 = load ptr, ptr %4, align 8
  call void (i32, ptr, ...) @log_var(i32 noundef 4, ptr noundef nonnull @.str.50, ptr noundef nonnull @plugin_type, ptr noundef nonnull @__func__._reconcile_job_features, ptr noundef %22, ptr noundef %14) #10
  br label %23

23:                                               ; preds = %18, %21, %12
  call void @slurm_xfree(ptr noundef nonnull %4) #10
  call void @slurm_xfree(ptr noundef nonnull %5) #10
  call void @llvm.lifetime.end.p0(i64 8, ptr nonnull %5) #10
  call void @llvm.lifetime.end.p0(i64 8, ptr nonnull %4) #10
  br label %24

24:                                               ; preds = %23, %2
  %25 = call i32 @list_for_each(ptr noundef %0, ptr noundef nonnull @_build_valid_feature_set, ptr noundef nonnull %3) #10
  %26 = icmp slt i32 %25, 0
  br i1 %26, label %29, label %27

27:                                               ; preds = %24
  %28 = call i32 @list_for_each(ptr noundef %9, ptr noundef nonnull @_list_make_str, ptr noundef nonnull %1) #10
  br label %29

29:                                               ; preds = %24, %27
  %.0 = phi i32 [ -1, %27 ], [ 0, %24 ]
  %.not13 = icmp eq ptr %9, null
  br i1 %.not13, label %31, label %30

30:                                               ; preds = %29
  call void @list_destroy(ptr noundef nonnull %9) #10
  br label %31

31:                                               ; preds = %30, %29
  call void @llvm.lifetime.end.p0(i64 16, ptr nonnull %3) #10
  ret i32 %.0
}